target datalayout = "e-m:e-p270:32:32-p271:32:32-p272:64:64-i64:64-i128:128-f80:128-n8:16:32:64-S128"
target triple = "x86_64-pc-linux-gnu"

%struct.proxy_hwm_cfg_t = type { ptr, i32, [4 x ptr], [4 x ptr], ptr }
%struct.zmq_msg_t = type { [64 x i8] }

@.str = private unnamed_addr constant [33 x i8] c"%s failed%s%s%s, errno = %i (%s)\00", align 1
@.str.1 = private unnamed_addr constant [20 x i8] c" (additional info: \00", align 1
@.str.2 = private unnamed_addr constant [1 x i8] zeroinitializer, align 1
@.str.3 = private unnamed_addr constant [2 x i8] c")\00", align 1
@_ZL13message_count = internal global i64 0, align 8
@.str.16 = private unnamed_addr constant [48 x i8] c"zmq_setsockopt (subsocket, ZMQ_SUBSCRIBE, 0, 0)\00", align 1
@.str.17 = private unnamed_addr constant [52 x i8] c"zmq_connect (subsocket, cfg->backend_endpoint[idx])\00", align 1
@.str.18 = private unnamed_addr constant [21 x i8] c"zmq_msg_close (&msg)\00", align 1

; Function Attrs: mustprogress uwtable
define dso_local noundef i32 @_Z40test_assert_success_message_errno_helperiPKcS0_(i32 noundef %0, ptr noundef %1, ptr noundef %2) #0 {
  %4 = alloca i32, align 4
  %5 = alloca ptr, align 8
  %6 = alloca ptr, align 8
  %7 = alloca [512 x i8], align 16
  store i32 %0, ptr %4, align 4, !tbaa !4
  store ptr %1, ptr %5, align 8, !tbaa !8
  store ptr %2, ptr %6, align 8, !tbaa !8
  %8 = load i32, ptr %4, align 4, !tbaa !4
  %9 = icmp eq i32 %8, -1
  br i1 %9, label %10, label %30

10:                                               ; preds = %3
  call void @llvm.lifetime.start.p0(i64 512, ptr %7) #9
  %11 = getelementptr inbounds nuw [512 x i8], ptr %7, i64 0, i64 511
  store i8 0, ptr %11, align 1, !tbaa !11
  %12 = load ptr, ptr %6, align 8, !tbaa !8
  %13 = load ptr, ptr %5, align 8, !tbaa !8
  %14 = icmp ne ptr %13, null
  %15 = select i1 %14, ptr @.str.1, ptr @.str.2
  %16 = load ptr, ptr %5, align 8, !tbaa !8
  %17 = icmp ne ptr %16, null
  br i1 %17, label %18, label %20

18:                                               ; preds = %10
  %19 = load ptr, ptr %5, align 8, !tbaa !8
  br label %21

20:                                               ; preds = %10
  br label %21

21:                                               ; preds = %20, %18
  %22 = phi ptr [ %19, %18 ], [ @.str.2, %20 ]
  %23 = load ptr, ptr %5, align 8, !tbaa !8
  %24 = icmp ne ptr %23, null
  %25 = select i1 %24, ptr @.str.3, ptr @.str.2
  %26 = call i32 @zmq_errno()
  %27 = call i32 @zmq_errno()
  %28 = call ptr @zmq_strerror(i32 noundef %27)
  %29 = call i32 (ptr, ...) @printf(ptr noundef @.str, ptr noundef %12, ptr noundef %15, ptr noundef %22, ptr noundef %25, i32 noundef %26, ptr noundef %28)
  call void @exit(i32 noundef 1) #10
  unreachable

30:                                               ; preds = %3
  %31 = load i32, ptr %4, align 4, !tbaa !4
  ret i32 %31
}

; Function Attrs: mustprogress uwtable
define internal void @_ZL22subscriber_thread_mainPv(ptr noundef %0) #0 {
  %2 = alloca ptr, align 8
  %3 = alloca ptr, align 8
  %4 = alloca i32, align 4
  %5 = alloca ptr, align 8
  %6 = alloca i64, align 8
  %7 = alloca i8, align 1
  %8 = alloca %struct.zmq_msg_t, align 8
  %9 = alloca i32, align 4
  %10 = alloca i32, align 4
  store ptr %0, ptr %2, align 8, !tbaa !12
  call void @llvm.lifetime.start.p0(i64 8, ptr %3) #9
  %11 = load ptr, ptr %2, align 8, !tbaa !12
  store ptr %11, ptr %3, align 8, !tbaa !12
  call void @llvm.lifetime.start.p0(i64 4, ptr %4) #9
  %12 = load ptr, ptr %3, align 8, !tbaa !12
  %13 = getelementptr inbounds nuw %struct.proxy_hwm_cfg_t, ptr %12, i32 0, i32 1
  %14 = load i32, ptr %13, align 8, !tbaa !22
  store i32 %14, ptr %4, align 4, !tbaa !4
  call void @llvm.lifetime.start.p0(i64 8, ptr %5) #9
  %15 = load ptr, ptr %3, align 8, !tbaa !12
  %16 = getelementptr inbounds nuw %struct.proxy_hwm_cfg_t, ptr %15, i32 0, i32 0
  %17 = load ptr, ptr %16, align 8, !tbaa !13
  %18 = call ptr @zmq_socket(ptr noundef %17, i32 noundef 2)
  store ptr %18, ptr %5, align 8, !tbaa !12
  %19 = load ptr, ptr %5, align 8, !tbaa !12
  call void @_ZL7set_hwmPv(ptr noundef %19)
  %20 = load ptr, ptr %5, align 8, !tbaa !12
  %21 = call i32 @zmq_setsockopt(ptr noundef %20, i32 noundef 6, ptr noundef null, i64 noundef 0)
  %22 = call noundef i32 @_Z40test_assert_success_message_errno_helperiPKcS0_(i32 noundef %21, ptr noundef null, ptr noundef @.str.16)
  %23 = load ptr, ptr %5, align 8, !tbaa !12
  %24 = load ptr, ptr %3, align 8, !tbaa !12
  %25 = getelementptr inbounds nuw %struct.proxy_hwm_cfg_t, ptr %24, i32 0, i32 3
  %26 = load i32, ptr %4, align 4, !tbaa !4
  %27 = sext i32 %26 to i64
  %28 = getelementptr inbounds [4 x ptr], ptr %25, i64 0, i64 %27
  %29 = load ptr, ptr %28, align 8, !tbaa !8
  %30 = call i32 @zmq_connect(ptr noundef %23, ptr noundef %29)
  %31 = call noundef i32 @_Z40test_assert_success_message_errno_helperiPKcS0_(i32 noundef %30, ptr noundef null, ptr noundef @.str.17)
  call void @llvm.lifetime.start.p0(i64 8, ptr %6) #9
  store i64 0, ptr %6, align 8, !tbaa !19
  call void @llvm.lifetime.start.p0(i64 1, ptr %7) #9
  store i8 1, ptr %7, align 1, !tbaa !28
  br label %32

32:                                               ; preds = %54, %1
  %33 = load i8, ptr %7, align 1, !tbaa !28, !range !30, !noundef !31
  %34 = trunc i8 %33 to i1
  br i1 %34, label %35, label %55

35:                                               ; preds = %32
  call void @llvm.lifetime.start.p0(i64 64, ptr %8) #9
  call void @llvm.lifetime.start.p0(i64 4, ptr %9) #9
  %36 = call i32 @zmq_msg_init(ptr noundef %8)
  store i32 %36, ptr %9, align 4, !tbaa !4
  %37 = load ptr, ptr %5, align 8, !tbaa !12
  %38 = call i32 @zmq_msg_recv(ptr noundef %8, ptr noundef %37, i32 noundef 0)
  store i32 %38, ptr %9, align 4, !tbaa !4
  %39 = load i32, ptr %9, align 4, !tbaa !4
  %40 = icmp ne i32 %39, -1
  br i1 %40, label %41, label %46

41:                                               ; preds = %35
  %42 = call i32 @zmq_msg_close(ptr noundef %8)
  %43 = call noundef i32 @_Z40test_assert_success_message_errno_helperiPKcS0_(i32 noundef %42, ptr noundef null, ptr noundef @.str.18)
  %44 = load i64, ptr %6, align 8, !tbaa !19
  %45 = add i64 %44, 1
  store i64 %45, ptr %6, align 8, !tbaa !19
  br label %46

46:                                               ; preds = %41, %35
  %47 = load i64, ptr %6, align 8, !tbaa !19
  %48 = load i64, ptr @_ZL13message_count, align 8, !tbaa !19
  %49 = icmp eq i64 %47, %48
  br i1 %49, label %50, label %51

50:                                               ; preds = %46
  store i32 3, ptr %10, align 4
  br label %52

51:                                               ; preds = %46
  store i32 0, ptr %10, align 4
  br label %52

52:                                               ; preds = %51, %50
  call void @llvm.lifetime.end.p0(i64 4, ptr %9) #9
  call void @llvm.lifetime.end.p0(i64 64, ptr %8) #9
  %53 = load i32, ptr %10, align 4
  switch i32 %53, label %58 [
    i32 0, label %54
    i32 3, label %55
  ]

54:                                               ; preds = %52
  br label %32, !llvm.loop !32

55:                                               ; preds = %52, %32
  %56 = load ptr, ptr %5, align 8, !tbaa !12
  %57 = call i32 @zmq_close(ptr noundef %56)
  call void @llvm.lifetime.end.p0(i64 1, ptr %7) #9
  call void @llvm.lifetime.end.p0(i64 8, ptr %6) #9
  call void @llvm.lifetime.end.p0(i64 8, ptr %5) #9
  call void @llvm.lifetime.end.p0(i64 4, ptr %4) #9
  call void @llvm.lifetime.end.p0(i64 8, ptr %3) #9
  ret void

58:                                               ; preds = %52
  unreachable
}