; Function Attrs: mustprogress uwtable
define internal void @_ZL22subscriber_thread_mainPv(ptr noundef readonly captures(none) %0) #0 {
  %2 = alloca %struct.zmq_msg_t, align 8
  %3 = getelementptr inbounds nuw i8, ptr %0, i64 8
  %4 = load i32, ptr %3, align 8, !tbaa !20
  %5 = load ptr, ptr %0, align 8, !tbaa !4
  %6 = tail call ptr @zmq_socket(ptr noundef %5, i32 noundef 2)
  tail call fastcc void @_ZL7set_hwmPv(ptr noundef %6)
  %7 = tail call i32 @zmq_setsockopt(ptr noundef %6, i32 noundef 6, ptr noundef null, i64 noundef 0)
  %8 = icmp eq i32 %7, -1
  br i1 %8, label %9, label %_Z40test_assert_success_message_errno_helperiPKcS0_.exit

9:                                                ; preds = %1
  %10 = tail call i32 @zmq_errno()
  %11 = tail call i32 @zmq_errno()
  %12 = tail call ptr @zmq_strerror(i32 noundef %11)
  %13 = tail call i32 (ptr, ...) @printf(ptr noundef nonnull dereferenceable(1) @.str, ptr noundef nonnull @.str.16, ptr noundef nonnull @.str.2, ptr noundef nonnull @.str.2, ptr noundef nonnull @.str.2, i32 noundef %10, ptr noundef %12)
  tail call void @exit(i32 noundef 1) #10
  unreachable

_Z40test_assert_success_message_errno_helperiPKcS0_.exit: ; preds = %1
  %14 = getelementptr inbounds nuw i8, ptr %0, i64 48
  %15 = sext i32 %4 to i64
  %16 = getelementptr inbounds [4 x ptr], ptr %14, i64 0, i64 %15
  %17 = load ptr, ptr %16, align 8, !tbaa !12
  %18 = tail call i32 @zmq_connect(ptr noundef %6, ptr noundef %17)
  %19 = icmp eq i32 %18, -1
  br i1 %19, label %20, label %_Z40test_assert_success_message_errno_helperiPKcS0_.exit15

20:                                               ; preds = %_Z40test_assert_success_message_errno_helperiPKcS0_.exit
  %21 = tail call i32 @zmq_errno()
  %22 = tail call i32 @zmq_errno()
  %23 = tail call ptr @zmq_strerror(i32 noundef %22)
  %24 = tail call i32 (ptr, ...) @printf(ptr noundef nonnull dereferenceable(1) @.str, ptr noundef nonnull @.str.17, ptr noundef nonnull @.str.2, ptr noundef nonnull @.str.2, ptr noundef nonnull @.str.2, i32 noundef %21, ptr noundef %23)
  tail call void @exit(i32 noundef 1) #10
  unreachable

_Z40test_assert_success_message_errno_helperiPKcS0_.exit15: ; preds = %_Z40test_assert_success_message_errno_helperiPKcS0_.exit, %36
  %.014 = phi i64 [ %.1, %36 ], [ 0, %_Z40test_assert_success_message_errno_helperiPKcS0_.exit ]
  call void @llvm.lifetime.start.p0(i64 64, ptr nonnull %2) #11
  %25 = call i32 @zmq_msg_init(ptr noundef nonnull %2)
  %26 = call i32 @zmq_msg_recv(ptr noundef nonnull %2, ptr noundef %6, i32 noundef 0)
  %.not = icmp eq i32 %26, -1
  br i1 %.not, label %36, label %27

27:                                               ; preds = %_Z40test_assert_success_message_errno_helperiPKcS0_.exit15
  %28 = call i32 @zmq_msg_close(ptr noundef nonnull %2)
  %29 = icmp eq i32 %28, -1
  br i1 %29, label %30, label %_Z40test_assert_success_message_errno_helperiPKcS0_.exit16

30:                                               ; preds = %27
  %31 = call i32 @zmq_errno()
  %32 = call i32 @zmq_errno()
  %33 = call ptr @zmq_strerror(i32 noundef %32)
  %34 = call i32 (ptr, ...) @printf(ptr noundef nonnull dereferenceable(1) @.str, ptr noundef nonnull @.str.18, ptr noundef nonnull @.str.2, ptr noundef nonnull @.str.2, ptr noundef nonnull @.str.2, i32 noundef %31, ptr noundef %33)
  call void @exit(i32 noundef 1) #10
  unreachable

_Z40test_assert_success_message_errno_helperiPKcS0_.exit16: ; preds = %27
  %35 = add i64 %.014, 1
  br label %36

36:                                               ; preds = %_Z40test_assert_success_message_errno_helperiPKcS0_.exit16, %_Z40test_assert_success_message_errno_helperiPKcS0_.exit15
  %.1 = phi i64 [ %35, %_Z40test_assert_success_message_errno_helperiPKcS0_.exit16 ], [ %.014, %_Z40test_assert_success_message_errno_helperiPKcS0_.exit15 ]
  %37 = load i64, ptr @_ZL13message_count, align 8, !tbaa !13
  %38 = icmp eq i64 %.1, %37
  call void @llvm.lifetime.end.p0(i64 64, ptr nonnull %2) #11
  br i1 %38, label %39, label %_Z40test_assert_success_message_errno_helperiPKcS0_.exit15

39:                                               ; preds = %36
  %40 = call i32 @zmq_close(ptr noundef %6)
  ret void
}